target datalayout = "e-m:e-p270:32:32-p271:32:32-p272:64:64-i64:64-i128:128-f80:128-n8:16:32:64-S128"
target triple = "x86_64-pc-linux-gnu"

%"struct.base::FileDescriptor" = type <{ i32, i8, [3 x i8] }>
%struct.stat = type { i64, i64, i64, i32, i32, i32, i32, i64, i64, i64, i64, %struct.timespec, %struct.timespec, %struct.timespec, [3 x i64] }
%struct.timespec = type { i64, i64 }

; Function Attrs: mustprogress nounwind uwtable
define noundef zeroext i1 @_ZN4base12SharedMemory29GetSizeFromSharedMemoryHandleERKNS_14FileDescriptorEPm(ptr noundef nonnull align 4 dereferenceable(5) %0, ptr noundef %1) #0 align 2 {
  %3 = alloca i1, align 1
  %4 = alloca ptr, align 8
  %5 = alloca ptr, align 8
  %6 = alloca %struct.stat, align 8
  %7 = alloca i32, align 4
  store ptr %0, ptr %4, align 8, !tbaa !27
  store ptr %1, ptr %5, align 8, !tbaa !46
  call void @llvm.lifetime.start.p0(i64 144, ptr %6) #16
  %8 = load ptr, ptr %4, align 8, !tbaa !27
  %9 = getelementptr inbounds nuw %"struct.base::FileDescriptor", ptr %8, i32 0, i32 0
  %10 = load i32, ptr %9, align 4, !tbaa !30
  %11 = call i32 @fstat(i32 noundef %10, ptr noundef %6) #16
  %12 = icmp ne i32 %11, 0
  br i1 %12, label %13, label %14

13:                                               ; preds = %2
  store i1 false, ptr %3, align 1
  store i32 1, ptr %7, align 4
  br label %23

14:                                               ; preds = %2
  %15 = getelementptr inbounds nuw %struct.stat, ptr %6, i32 0, i32 8
  %16 = load i64, ptr %15, align 8, !tbaa !48
  %17 = icmp slt i64 %16, 0
  br i1 %17, label %18, label %19

18:                                               ; preds = %14
  store i1 false, ptr %3, align 1
  store i32 1, ptr %7, align 4
  br label %23

19:                                               ; preds = %14
  %20 = getelementptr inbounds nuw %struct.stat, ptr %6, i32 0, i32 8
  %21 = load i64, ptr %20, align 8, !tbaa !48
  %22 = load ptr, ptr %5, align 8, !tbaa !46
  store i64 %21, ptr %22, align 8, !tbaa !45
  store i1 true, ptr %3, align 1
  store i32 1, ptr %7, align 4
  br label %23

23:                                               ; preds = %19, %18, %13
  call void @llvm.lifetime.end.p0(i64 144, ptr %6) #16
  %24 = load i1, ptr %3, align 1
  ret i1 %24
}