; Function Attrs: mustprogress nofree nounwind uwtable
define noundef zeroext i1 @_ZN4base12SharedMemory29GetSizeFromSharedMemoryHandleERKNS_14FileDescriptorEPm(ptr noundef nonnull readonly align 4 captures(none) dereferenceable(5) %0, ptr noundef writeonly captures(none) %1) local_unnamed_addr #12 align 2 {
  %3 = alloca %struct.stat, align 8
  call void @llvm.lifetime.start.p0(i64 144, ptr nonnull %3) #22
  %4 = load i32, ptr %0, align 4, !tbaa !20
  %5 = call i32 @fstat(i32 noundef %4, ptr noundef nonnull %3) #22
  %.not = icmp eq i32 %5, 0
  br i1 %.not, label %6, label %11

6:                                                ; preds = %2
  %7 = getelementptr inbounds nuw i8, ptr %3, i64 48
  %8 = load i64, ptr %7, align 8, !tbaa !30
  %9 = icmp slt i64 %8, 0
  br i1 %9, label %11, label %10

10:                                               ; preds = %6
  store i64 %8, ptr %1, align 8, !tbaa !33
  br label %11

11:                                               ; preds = %6, %2, %10
  %.0 = phi i1 [ true, %10 ], [ false, %2 ], [ false, %6 ]
  call void @llvm.lifetime.end.p0(i64 144, ptr nonnull %3) #22
  ret i1 %.0
}